Microchip MPLAB XC8 Compiler V2.36

Linker command line:

-W-3 --edf=C:\Program Files\Microchip\xc8\v2.36\pic\dat\en_msgs.txt -cn \
  -h+dist/default/production\lcddice.X.production.sym \
  --cmf=dist/default/production\lcddice.X.production.cmf -z -Q16F877A \
  -oC:\Users\Karaca\AppData\Local\Temp\xcAs8gg.4 --defsym=__MPLAB_BUILD=1 \
  -Mdist/default/production/lcddice.X.production.map \
  --md=C:\Users\Karaca\AppData\Local\Temp\xcAs8gg.dat -E1 -ver=XC8 Compiler \
  --acfsm=1493 -ACODE=00h-07FFhx4 -ASTRCODE=00h-01FFFh -ASTRING=00h-0FFhx32 \
  -ACONST=00h-0FFhx32 -AENTRY=00h-0FFhx32 -ACOMMON=070h-07Fh \
  -ABANK0=020h-06Fh -ABANK1=0A0h-0EFh -ABANK2=0110h-016Fh \
  -ABANK3=0190h-01EFh -ARAM=020h-06Fh,0A0h-0EFh,0110h-016Fh,0190h-01EFh \
  -AABS1=020h-07Fh,0A0h-0EFh,0110h-016Fh,0190h-01EFh -ASFR0=00h-01Fh \
  -ASFR1=080h-09Fh -ASFR2=0100h-010Fh -ASFR3=0180h-018Fh \
  -ACONFIG=02007h-02007h -DCONFIG=2 -AIDLOC=02000h-02003h -DIDLOC=2 \
  -AEEDATA=00h-0FFh/02100h -peeprom_data=EEDATA -DEEDATA=2 -DCODE=2 \
  -DSTRCODE=2 -DSTRING=2 -DCONST=2 -DENTRY=2 \
  -preset_vec=00h,intentry,init,end_init -ppowerup=CODE -pcinit=CODE \
  -pfunctab=ENTRY -k C:\Users\Karaca\AppData\Local\Temp\xcAs8gg.o \
  dist/default/production\lcddice.X.production.o 

Object code version is 3.11

Machine type is 16F877A



                Name                               Link     Load   Length Selector   Space Scale
C:\Users\Karaca\AppData\Local\Temp\xcAs8gg.o
                end_init                              0        0        3        0       0
                config                             2007     2007        1        0       4
                idloc                              2000     2000        4        0       5
dist/default/production\lcddice.X.production.o
                cinit                               7DB      7DB       25      FB6       0
                config                             2007     2007        1        0       4
                idloc                              2000     2000        4        0       5
                text13                              35E      35E       5B      6BC       0
                text12                              169      169        5      2D2       0
                text11                              1A0      1A0       25      340       0
                text10                              186      186       1A      30C       0
                text9                               176      176       10      2EC       0
                text8                               24F      24F       3E      49E       0
                text7                               1C5      1C5       25      38A       0
                text6                               1EA      1EA       2B      3D4       0
                text5                               2D1      2D1       46      5A2       0
                text4                               317      317       47      62E       0
                text3                               28D      28D       44      51A       0
                text2                               215      215       3A      42A       0
                text1                               3B9      3B9       E8      772       0
                maintext                            4A1      4A1      33A      942       0
                cstackBANK0                          20       20       1A       20       1
                cstackCOMMON                         70       70        E       70       1
                clrtext                             16E      16E        8      2DC       0
                dataBANK0                            52       52        4       20       1
                bssBANK0                             3A       3A       18       20       1
                strings                               3        3       74        6       0
                idataBANK0                          165      165        4      2CA       0

TOTAL           Name                               Link     Load   Length     Space
        CLASS   CODE           
                end_init                              0        0        3         0
                cinit                               7DB      7DB       25         0
                text13                              35E      35E       5B         0
                text12                              169      169        5         0
                text11                              1A0      1A0       25         0
                text10                              186      186       1A         0
                text9                               176      176       10         0
                text8                               24F      24F       3E         0
                text7                               1C5      1C5       25         0
                text6                               1EA      1EA       2B         0
                text5                               2D1      2D1       46         0
                text4                               317      317       47         0
                text3                               28D      28D       44         0
                text2                               215      215       3A         0
                text1                               3B9      3B9       E8         0
                maintext                            4A1      4A1      33A         0
                clrtext                             16E      16E        8         0
                idataBANK0                          165      165        4         0

        CLASS   STRCODE        

        CLASS   STRING         
                strings                               3        3       74         0

        CLASS   CONST          

        CLASS   ENTRY          

        CLASS   COMMON         
                cstackCOMMON                         70       70        E         1

        CLASS   BANK0          
                cstackBANK0                          20       20       1A         1
                dataBANK0                            52       52        4         1
                bssBANK0                             3A       3A       18         1

        CLASS   BANK1          

        CLASS   BANK2          

        CLASS   BANK3          

        CLASS   RAM            

        CLASS   ABS1           
                abs_s1                               7E       7E        2         1

        CLASS   SFR0           

        CLASS   SFR1           

        CLASS   SFR2           

        CLASS   SFR3           

        CLASS   CONFIG         
                config                             2007     2007        1         4

        CLASS   IDLOC          
                idloc                              2000     2000        4         5

        CLASS   EEDATA         

        CLASS   STACK          



SEGMENTS        Name                           Load    Length   Top    Selector   Space  Class     Delta

                reset_vec                      000000  000003  000003         0       0  CODE        2
                strings                        000003  000074  000077         6       0  STRING      2
                cstackBANK0                    000020  000036  000056        20       1  BANK0       1
                cstackCOMMON                   000070  00000E  00007E        70       1  COMMON      1
                idataBANK0                     000165  000004  000169       2CA       0  CODE        2
                text12                         000169  000005  00016E       2D2       0  CODE        2
                clrtext                        00016E  000008  000176       2DC       0  CODE        2
                text9                          000176  000010  000186       2EC       0  CODE        2
                text10                         000186  00001A  0001A0       30C       0  CODE        2
                text11                         0001A0  000025  0001C5       340       0  CODE        2
                text7                          0001C5  000025  0001EA       38A       0  CODE        2
                text6                          0001EA  00002B  000215       3D4       0  CODE        2
                text2                          000215  00003A  00024F       42A       0  CODE        2
                text8                          00024F  00003E  00028D       49E       0  CODE        2
                text3                          00028D  000044  0002D1       51A       0  CODE        2
                text5                          0002D1  000046  000317       5A2       0  CODE        2
                text4                          000317  000047  00035E       62E       0  CODE        2
                text13                         00035E  00005B  0003B9       6BC       0  CODE        2
                text1                          0003B9  0000E8  0004A1       772       0  CODE        2
                maintext                       0004A1  00033A  0007DB       942       0  CODE        2
                cinit                          0007DB  000025  000800       FB6       0  CODE        2


UNUSED ADDRESS RANGES

        Name                Unused          Largest block    Delta
        BANK0            0056-006F             1A           1
        BANK1            00A0-00EF             50           1
        BANK2            0110-016F             60           1
        BANK3            0190-01EF             60           1
        CODE             0077-0164             EE           2
                         0800-1FFF            800
        CONST            0077-0164             89           2
                         0800-1FFF            100
        EEDATA           2100-21FF            100           2
        ENTRY            0077-0164             89           2
                         0800-1FFF            100
        RAM              0056-006F             1A           1
                         00A0-00EF             50
                         0110-016F             60
                         0190-01EF             60
        SFR0             0000-001F             20           1
        SFR1             0080-009F             20           1
        SFR2             0100-010F             10           1
        SFR3             0180-018F             10           1
        STRCODE          0077-0164             EE           2
                         0800-1FFF           1800
        STRING           0077-0164             89           2
                         0800-1FFF            100

                                  Symbol Table

?___awmod                cstackBANK0  0027
?___lmul                 cstackCOMMON 0070
?___lwdiv                cstackCOMMON 0070
?___lwmod                cstackCOMMON 0078
?_rand                   cstackBANK0  0020
?_sprintf                cstackBANK0  0020
_Dice1                   bssBANK0     0046
_Dice2                   bssBANK0     003A
_PORTC                   (abs)        0007
_PORTD                   (abs)        0008
_RB0                     (abs)        0030
_RB1                     (abs)        0031
_RB2                     (abs)        0032
_RD0                     (abs)        0040
_RD1                     (abs)        0041
_RD2                     (abs)        0042
_TRISB                   (abs)        0086
_TRISC                   (abs)        0087
_TRISD                   (abs)        0088
__Habs1                  abs1         0000
__Hbank0                 bank0        0000
__Hbank1                 bank1        0000
__Hbank2                 bank2        0000
__Hbank3                 bank3        0000
__HbssBANK0              bssBANK0     0000
__Hcinit                 cinit        0800
__Hclrtext               clrtext      0000
__Hcode                  code         0000
__Hcommon                common       0000
__Hconfig                config       2008
__HcstackBANK0           cstackBANK0  0000
__HcstackCOMMON          cstackCOMMON 0000
__HdataBANK0             dataBANK0    0000
__Heeprom_data           eeprom_data  0000
__Hend_init              end_init     0003
__Hfunctab               functab      0000
__HidataBANK0            idataBANK0   0000
__Hidloc                 idloc        2004
__Hinit                  init         0000
__Hintentry              intentry     0000
__Hmaintext              maintext     0000
__Hpowerup               powerup      0000
__Hram                   ram          0000
__Hreset_vec             reset_vec    0000
__Hsfr0                  sfr0         0000
__Hsfr1                  sfr1         0000
__Hsfr2                  sfr2         0000
__Hsfr3                  sfr3         0000
__Hspace_0               (abs)        0800
__Hspace_1               (abs)        007E
__Hspace_2               (abs)        0000
__Hspace_3               (abs)        0000
__Hspace_4               (abs)        400F
__Hstack                 stack        0000
__Hstrings               strings      0000
__Htext                  text         0000
__Labs1                  abs1         0000
__Lbank0                 bank0        0000
__Lbank1                 bank1        0000
__Lbank2                 bank2        0000
__Lbank3                 bank3        0000
__LbssBANK0              bssBANK0     0000
__Lcinit                 cinit        07DB
__Lclrtext               clrtext      0000
__Lcode                  code         0000
__Lcommon                common       0000
__Lconfig                config       0000
__LcstackBANK0           cstackBANK0  0000
__LcstackCOMMON          cstackCOMMON 0000
__LdataBANK0             dataBANK0    0000
__Leeprom_data           eeprom_data  0000
__Lend_init              end_init     0000
__Lfunctab               functab      0000
__LidataBANK0            idataBANK0   0000
__Lidloc                 idloc        0000
__Linit                  init         0000
__Lintentry              intentry     0000
__Lmaintext              maintext     0000
__Lpowerup               powerup      0000
__Lram                   ram          0000
__Lreset_vec             reset_vec    0000
__Lsfr0                  sfr0         0000
__Lsfr1                  sfr1         0000
__Lsfr2                  sfr2         0000
__Lsfr3                  sfr3         0000
__Lspace_0               (abs)        0000
__Lspace_1               (abs)        0000
__Lspace_2               (abs)        0000
__Lspace_3               (abs)        0000
__Lspace_4               (abs)        0000
__Lstack                 stack        0000
__Lstrings               strings      0000
__Ltext                  text         0000
__S0                     (abs)        0800
__S1                     (abs)        007E
__S3                     (abs)        0000
___awmod                 text13       035E
___awmod@counter         cstackBANK0  002B
___awmod@dividend        cstackBANK0  0029
___awmod@divisor         cstackBANK0  0027
___awmod@sign            cstackBANK0  002C
___int_sp                stack        0000
___latbits               (abs)        0002
___lmul                  text5        02D1
___lmul@multiplicand     cstackCOMMON 0074
___lmul@multiplier       cstackCOMMON 0070
___lmul@product          cstackCOMMON 0079
___lwdiv                 text3        028D
___lwdiv@counter         cstackCOMMON 0077
___lwdiv@dividend        cstackCOMMON 0072
___lwdiv@divisor         cstackCOMMON 0070
___lwdiv@quotient        cstackCOMMON 0075
___lwmod                 text2        0215
___lwmod@counter         cstackCOMMON 007D
___lwmod@dividend        cstackCOMMON 007A
___lwmod@divisor         cstackCOMMON 0078
___sp                    stack        0000
___stackhi               (abs)        0000
___stacklo               (abs)        0000
__end_of___awmod         text13       03B9
__end_of___lmul          text5        0317
__end_of___lwdiv         text3        02D1
__end_of___lwmod         text2        024F
__end_of__initialization cinit        07FC
__end_of__stringtab      strings      0013
__end_of_bekle           text12       016E
__end_of_dpowers         strings      001D
__end_of_lcd_gotoxy      text10       01A0
__end_of_lcd_hazirla     text8        028D
__end_of_lcd_komut       text11       01C5
__end_of_lcd_sil         text9        0186
__end_of_lcd_yaz         text6        0215
__end_of_main            maintext     07DB
__end_of_rand            text4        035E
__end_of_sprintf         text1        04A1
__end_of_veri_yolla      text7        01EA
__initialization         cinit        07DB
__pbssBANK0              bssBANK0     003A
__pcstackBANK0           cstackBANK0  0020
__pcstackCOMMON          cstackCOMMON 0070
__pdataBANK0             dataBANK0    0052
__pidataBANK0            idataBANK0   0165
__pmaintext              maintext     04A1
__pstrings               strings      0003
__ptext1                 text1        03B9
__ptext10                text10       0186
__ptext11                text11       01A0
__ptext12                text12       0169
__ptext13                text13       035E
__ptext2                 text2        0215
__ptext3                 text3        028D
__ptext4                 text4        0317
__ptext5                 text5        02D1
__ptext6                 text6        01EA
__ptext7                 text7        01C5
__ptext8                 text8        024F
__ptext9                 text9        0176
__stringbase             strings      0012
__stringtab              strings      0003
_bekle                   text12       0169
_dpowers                 strings      0013
_lcd_gotoxy              text10       0186
_lcd_hazirla             text8        024F
_lcd_komut               text11       01A0
_lcd_sil                 text9        0176
_lcd_yaz                 text6        01EA
_main                    maintext     04A1
_rand                    text4        0317
_randx                   dataBANK0    0052
_sprintf                 text1        03B9
_veri_yolla              text7        01C5
btemp                    (abs)        007E
clear_ram0               clrtext      016E
end_of_initialization    cinit        07FC
intlevel0                functab      0000
intlevel1                functab      0000
intlevel2                functab      0000
intlevel3                functab      0000
intlevel4                functab      0000
intlevel5                functab      0000
lcd_gotoxy@x             cstackCOMMON 0074
lcd_gotoxy@y             cstackCOMMON 0073
lcd_komut@c              cstackCOMMON 0072
lcd_yaz@s                cstackCOMMON 0073
main@i                   cstackBANK0  0038
main@r                   cstackBANK0  0030
main@r_76                cstackBANK0  0032
main@r_78                cstackBANK0  0034
main@r_80                cstackBANK0  0036
reset_vec                reset_vec    0000
sprintf@ap               cstackBANK0  0026
sprintf@c                cstackBANK0  002C
sprintf@f                cstackBANK0  0020
sprintf@flag             cstackBANK0  0027
sprintf@prec             cstackBANK0  0028
sprintf@sp               cstackBANK0  002B
sprintf@val              cstackBANK0  0029
start                    init         0000
start_initialization     cinit        07DB
veri_yolla@c             cstackCOMMON 0072
wtemp0                   (abs)        007E


MODULE INFORMATION

Module		Function		Class		Link	Load	Size
C:\Program Files\Microchip\xc8\v2.36\pic\sources\c90\common\doprnt.c
		_sprintf       		CODE           	03B9	0000	232

C:\Program Files\Microchip\xc8\v2.36\pic\sources\c90\common\doprnt.c estimated size: 232

C:\Program Files\Microchip\xc8\v2.36\pic\sources\c90\common\lwmod.c
		___lwmod       		CODE           	0215	0000	58

C:\Program Files\Microchip\xc8\v2.36\pic\sources\c90\common\lwmod.c estimated size: 58

C:\Program Files\Microchip\xc8\v2.36\pic\sources\c90\common\awmod.c
		___awmod       		CODE           	035E	0000	91

C:\Program Files\Microchip\xc8\v2.36\pic\sources\c90\common\awmod.c estimated size: 91

C:\Program Files\Microchip\xc8\v2.36\pic\sources\c90\common\rand.c
		_rand          		CODE           	0317	0000	71

C:\Program Files\Microchip\xc8\v2.36\pic\sources\c90\common\rand.c estimated size: 71

C:\Program Files\Microchip\xc8\v2.36\pic\sources\c90\common\lwdiv.c
		___lwdiv       		CODE           	028D	0000	68

C:\Program Files\Microchip\xc8\v2.36\pic\sources\c90\common\lwdiv.c estimated size: 68

lcd_lib.c
		_lcd_sil       		CODE           	0176	0000	16
		_lcd_hazirla   		CODE           	024F	0000	62
		_lcd_komut     		CODE           	01A0	0000	37
		_lcd_gotoxy    		CODE           	0186	0000	26
		_bekle         		CODE           	0169	0000	5
		_veri_yolla    		CODE           	01C5	0000	37
		_lcd_yaz       		CODE           	01EA	0000	43

lcd_lib.c estimated size: 226

lcddice.c
		_main          		CODE           	04A1	0000	826

lcddice.c estimated size: 826

shared
		__stringtab    		STRING         	0003	0000	16
		_dpowers       		STRING         	0013	0000	10
		__initialization		CODE           	07DB	0000	33

shared estimated size: 59

C:\Program Files\Microchip\xc8\v2.36\pic\sources\c90\common\Umul32.c
		___lmul        		CODE           	02D1	0000	70

C:\Program Files\Microchip\xc8\v2.36\pic\sources\c90\common\Umul32.c estimated size: 70

